; Function Attrs: nounwind sspstrong uwtable
define internal range(i64 0, 4294967296) i64 @ehci_opreg_read(ptr noundef readonly captures(none) %ptr, i64 noundef %addr, i32 %size) #0 {
entry:
  %_now.i.i = alloca %struct.timeval, align 8
  %cond = icmp eq i64 %addr, 12
  br i1 %cond, label %sw.bb.split, label %sw.default.split

sw.bb.split:                                      ; preds = %entry
  %frindex = getelementptr inbounds nuw i8, ptr %ptr, i64 1360
  %0 = load i32, ptr %frindex, align 4
  %and = and i32 %0, -8
  %opregbase7 = getelementptr inbounds nuw i8, ptr %ptr, i64 1320
  %1 = load i16, ptr %opregbase7, align 8
  %conv8 = zext i16 %1 to i32
  %add9 = add nuw nsw i32 %conv8, 12
  br label %sw.epilog

sw.default.split:                                 ; preds = %entry
  %2 = getelementptr inbounds nuw i8, ptr %ptr, i64 1348
  %shr = lshr i64 %addr, 2
  %arrayidx = getelementptr [17 x i32], ptr %2, i64 0, i64 %shr
  %3 = load i32, ptr %arrayidx, align 4
  %opregbase12 = getelementptr inbounds nuw i8, ptr %ptr, i64 1320
  %4 = load i16, ptr %opregbase12, align 8
  %conv13 = zext i16 %4 to i64
  %add14 = add i64 %addr, %conv13
  %conv115 = trunc i64 %add14 to i32
  %conv.i.i = and i64 %addr, 4294967295
  %cmp.i.i = icmp samesign ult i64 %conv.i.i, 65
  br i1 %cmp.i.i, label %land.lhs.true.i.i, label %if.else.i.i17

land.lhs.true.i.i:                                ; preds = %sw.default.split
  %arrayidx.i.i = getelementptr ptr, ptr @ehci_mmio_names, i64 %conv.i.i
  %5 = load ptr, ptr %arrayidx.i.i, align 8
  %cmp2.not.i.i19 = icmp eq ptr %5, null
  br i1 %cmp2.not.i.i19, label %if.else.i.i17, label %sw.epilog

if.else.i.i17:                                    ; preds = %land.lhs.true.i.i, %sw.default.split
  br label %sw.epilog

sw.epilog:                                        ; preds = %sw.bb.split, %if.else.i.i17, %land.lhs.true.i.i
  %6 = phi i32 [ %conv115, %land.lhs.true.i.i ], [ %conv115, %if.else.i.i17 ], [ %add9, %sw.bb.split ]
  %phi.call = phi ptr [ %5, %land.lhs.true.i.i ], [ @.str.60, %if.else.i.i17 ], [ @.str.149, %sw.bb.split ]
  %val.0 = phi i32 [ %3, %land.lhs.true.i.i ], [ %3, %if.else.i.i17 ], [ %and, %sw.bb.split ]
  call void @llvm.lifetime.start.p0(i64 16, ptr nonnull %_now.i.i)
  %7 = load i32, ptr @trace_events_enabled_count, align 4
  %tobool.i.i = icmp ne i32 %7, 0
  %8 = load i16, ptr @_TRACE_USB_EHCI_OPREG_READ_DSTATE, align 2
  %tobool4.i.i = icmp ne i16 %8, 0
  %or.cond.i.i = select i1 %tobool.i.i, i1 %tobool4.i.i, i1 false
  br i1 %or.cond.i.i, label %land.lhs.true5.i.i, label %trace_usb_ehci_opreg_read.exit

land.lhs.true5.i.i:                               ; preds = %sw.epilog
  %9 = load i32, ptr @qemu_loglevel, align 4
  %and.i.i.i = and i32 %9, 32768
  %cmp.i.not.i.i = icmp eq i32 %and.i.i.i, 0
  br i1 %cmp.i.not.i.i, label %trace_usb_ehci_opreg_read.exit, label %if.then.i.i

if.then.i.i:                                      ; preds = %land.lhs.true5.i.i
  %10 = load i8, ptr @message_with_timestamp, align 1
  %tobool7.i.i = trunc i8 %10 to i1
  br i1 %tobool7.i.i, label %if.then8.i.i, label %if.else.i.i21

if.then8.i.i:                                     ; preds = %if.then.i.i
  %call9.i.i = call i32 @gettimeofday(ptr noundef nonnull %_now.i.i, ptr noundef null) #17
  %call10.i.i = tail call i32 @qemu_get_thread_id() #17
  %11 = load i64, ptr %_now.i.i, align 8
  %tv_usec.i.i = getelementptr inbounds nuw i8, ptr %_now.i.i, i64 8
  %12 = load i64, ptr %tv_usec.i.i, align 8
  tail call void (ptr, ...) @qemu_log(ptr noundef nonnull @.str.144, i32 noundef %call10.i.i, i64 noundef %11, i64 noundef %12, i32 noundef %6, ptr noundef nonnull %phi.call, i32 noundef %val.0) #17
  br label %trace_usb_ehci_opreg_read.exit

if.else.i.i21:                                    ; preds = %if.then.i.i
  tail call void (ptr, ...) @qemu_log(ptr noundef nonnull @.str.145, i32 noundef %6, ptr noundef nonnull %phi.call, i32 noundef %val.0) #17
  br label %trace_usb_ehci_opreg_read.exit

trace_usb_ehci_opreg_read.exit:                   ; preds = %sw.epilog, %land.lhs.true5.i.i, %if.then8.i.i, %if.else.i.i21
  call void @llvm.lifetime.end.p0(i64 16, ptr nonnull %_now.i.i)
  %conv2 = zext i32 %val.0 to i64
  ret i64 %conv2
}